Certificate:
    Data:
        Version: 3 (0x2)
        Serial Number:
            7f:b9:35:ce:5e:28:0b:6a:a2:41:47:d7:15:c8:6b:c2:31:b4:0b:c3
        Signature Algorithm: sha256WithRSAEncryption
        Issuer: C=ES, ST=Barcelona, O=NSAA Root CA, OU=Certification, CN=NSAA Root CA
        Validity
            Not Before: Mar 28 15:57:41 2022 GMT
            Not After : Mar 28 15:57:41 2023 GMT
        Subject: C=ES, ST=Barcelona, O=NSAA Root CA, OU=Web Server, CN=NSAA TLS Web Server
        Subject Public Key Info:
            Public Key Algorithm: rsaEncryption
                RSA Public-Key: (2048 bit)
                Modulus:
                    00:e5:8d:f7:ba:96:72:c4:3c:88:f2:25:81:8f:61:
                    cd:8f:5a:34:09:69:35:49:67:94:15:0c:66:a9:ce:
                    63:d2:95:b4:62:2b:9b:cb:d7:39:fc:a2:17:c9:7c:
                    b7:29:83:82:f1:d7:7b:c5:8b:8b:82:9d:54:d2:f3:
                    11:e5:eb:31:f0:40:79:b9:c0:23:f7:de:de:88:19:
                    a3:b0:5a:e6:96:4d:5e:40:db:2c:ab:09:9c:88:31:
                    72:a7:99:4b:dc:fd:3c:28:b0:52:a4:c0:58:63:bb:
                    1d:50:20:8c:3d:c4:59:20:57:17:14:f7:95:5b:1c:
                    9f:a9:dc:02:03:38:1a:8b:a8:d2:ab:50:cb:e9:0b:
                    bd:c7:ed:85:bc:30:a4:bf:3e:55:a3:0d:eb:90:c0:
                    45:24:e4:22:4b:b3:b9:3c:ff:6d:ff:18:c2:fe:df:
                    6f:f9:13:13:37:a0:f3:6e:bd:48:07:eb:e7:20:3a:
                    53:d6:e0:11:08:18:06:4f:2a:25:70:fe:29:b5:4e:
                    46:88:a1:3e:c7:4f:d8:ce:3f:5d:da:02:53:85:64:
                    1d:63:6f:30:d0:d8:1b:38:0d:68:78:d1:8e:08:ba:
                    79:f4:e7:0b:a5:de:4f:5b:ac:50:b8:66:0a:72:e4:
                    ad:dd:c1:92:a1:63:7a:06:08:f2:a9:88:0e:a1:db:
                    00:0b
                Exponent: 65537 (0x10001)
        X509v3 extensions:
            X509v3 Basic Constraints: 
                CA:FALSE
            X509v3 Subject Key Identifier: 
                E7:34:DB:D0:B9:8D:F7:ED:54:3E:0C:93:5C:31:EF:09:C2:F7:FD:4F
            X509v3 Authority Key Identifier: 
                keyid:9F:DC:96:3D:26:FE:1D:84:70:5E:0E:B1:0D:9C:04:90:48:CE:FC:AD

            Authority Information Access: 
                OCSP - URI:http://30.0.2.4

            X509v3 Key Usage: critical
                Digital Signature, Non Repudiation, Key Encipherment, Key Agreement
            X509v3 Extended Key Usage: critical
                TLS Web Server Authentication
            X509v3 Subject Alternative Name: 
                IP Address:30.0.2.6
    Signature Algorithm: sha256WithRSAEncryption
         18:6c:8c:6f:cd:51:11:e6:ae:25:92:55:c0:8d:d2:80:b4:46:
         53:24:07:53:dc:41:55:3b:c0:a3:f4:d6:b3:7d:55:4b:ae:e5:
         9c:dd:6f:fe:4e:4f:5f:21:96:c1:cd:a1:d3:2c:ba:31:f9:fe:
         8c:7d:56:24:ba:4d:c0:68:a5:d0:8d:e3:76:83:87:99:a6:1c:
         bc:8f:1a:33:76:f0:74:46:e0:1e:9e:48:03:3d:20:42:a7:04:
         49:8d:2f:2e:fc:bd:1a:6e:90:42:1d:79:d9:a1:ee:fb:53:7a:
         36:81:99:8d:38:1f:e5:0b:7f:e3:b0:8e:41:24:7e:e6:39:f3:
         92:02:57:03:42:61:41:01:56:24:73:03:d8:0a:48:b0:6a:d2:
         69:86:fa:b8:ba:05:77:4a:f1:a0:5b:1a:0c:aa:67:7f:58:76:
         70:37:30:5f:51:18:76:2f:d0:a5:66:28:d6:d2:cb:af:64:be:
         1b:35:be:58:e0:72:69:71:34:44:e7:6f:54:ae:04:5f:ea:55:
         fb:62:58:47:91:45:21:85:d6:f7:30:54:c3:ac:b9:2f:74:3f:
         09:a5:29:a0:01:3b:1a:0b:49:b6:95:f0:28:52:d0:f0:7c:6a:
         60:0e:c3:5d:73:7f:31:36:64:9a:0a:94:91:a6:50:51:a5:e2:
         91:a5:68:64:75:28:7a:42:fa:96:c2:98:78:44:e5:77:d1:6e:
         d3:5c:10:b5:32:3b:31:6a:03:19:80:aa:d4:1a:5d:35:47:49:
         c5:2a:6e:b4:61:99:cc:31:8b:1c:76:6d:a3:be:05:f6:92:a3:
         6f:58:de:6f:b7:a0:11:84:17:ac:72:9a:f6:ac:ba:03:35:ef:
         5f:14:3b:92:0f:87:68:97:60:8d:b9:6e:e2:cc:f6:81:d3:2c:
         72:0e:a7:89:56:87:db:61:7b:a5:9c:8c:57:3e:66:ef:37:ac:
         b8:1e:64:34:56:e1:90:d6:65:b1:a7:de:5d:82:f5:48:1c:7b:
         72:43:a1:90:53:4f:a5:5f:85:fe:a9:68:ce:16:9e:e5:33:f2:
         2a:ee:55:7b:14:24:53:73:8d:4c:3e:e4:0d:94:80:5a:33:b2:
         7c:e8:bd:fb:c0:74:58:b0:72:12:5a:fd:5a:f8:15:d8:e6:d2:
         67:de:dd:0e:09:a6:0f:f4:70:9a:4b:ba:b6:4c:1d:38:b0:af:
         8c:70:ef:23:15:07:84:76:e1:77:e7:a2:b0:4e:01:c6:43:91:
         d1:f8:8b:a5:04:94:4b:62:1d:1d:ab:f8:e5:3d:75:16:f0:08:
         40:aa:2e:ab:59:b4:60:cf:ba:65:d3:7b:2e:f3:a9:72:9c:9c:
         93:21:ba:7f:c2:ba:84:81
-----BEGIN CERTIFICATE-----
MIIFFTCCAv2gAwIBAgIUf7k1zl4oC2qiQUfXFchrwjG0C8MwDQYJKoZIhvcNAQEL
BQAwZzELMAkGA1UEBhMCRVMxEjAQBgNVBAgMCUJhcmNlbG9uYTEVMBMGA1UECgwM
TlNBQSBSb290IENBMRYwFAYDVQQLDA1DZXJ0aWZpY2F0aW9uMRUwEwYDVQQDDAxO
U0FBIFJvb3QgQ0EwHhcNMjIwMzI4MTU1NzQxWhcNMjMwMzI4MTU1NzQxWjBrMQsw
CQYDVQQGEwJFUzESMBAGA1UECAwJQmFyY2Vsb25hMRUwEwYDVQQKDAxOU0FBIFJv
b3QgQ0ExEzARBgNVBAsMCldlYiBTZXJ2ZXIxHDAaBgNVBAMME05TQUEgVExTIFdl
YiBTZXJ2ZXIwggEiMA0GCSqGSIb3DQEBAQUAA4IBDwAwggEKAoIBAQDljfe6lnLE
PIjyJYGPYc2PWjQJaTVJZ5QVDGapzmPSlbRiK5vL1zn8ohfJfLcpg4Lx13vFi4uC
nVTS8xHl6zHwQHm5wCP33t6IGaOwWuaWTV5A2yyrCZyIMXKnmUvc/TwosFKkwFhj
ux1QIIw9xFkgVxcU95VbHJ+p3AIDOBqLqNKrUMvpC73H7YW8MKS/PlWjDeuQwEUk
5CJLs7k8/23/GML+32/5ExM3oPNuvUgH6+cgOlPW4BEIGAZPKiVw/im1TkaIoT7H
T9jOP13aAlOFZB1jbzDQ2Bs4DWh40Y4Iunn05wul3k9brFC4Zgpy5K3dwZKhY3oG
CPKpiA6h2wALAgMBAAGjgbQwgbEwCQYDVR0TBAIwADAdBgNVHQ4EFgQU5zTb0LmN
9+1UPgyTXDHvCcL3/U8wHwYDVR0jBBgwFoAUn9yWPSb+HYRwXg6xDZwEkEjO/K0w
KwYIKwYBBQUHAQEEHzAdMBsGCCsGAQUFBzABhg9odHRwOi8vMzAuMC4yLjQwDgYD
VR0PAQH/BAQDAgPoMBYGA1UdJQEB/wQMMAoGCCsGAQUFBwMBMA8GA1UdEQQIMAaH
BB4AAgYwDQYJKoZIhvcNAQELBQADggIBABhsjG/NURHmriWSVcCN0oC0RlMkB1Pc
QVU7wKP01rN9VUuu5Zzdb/5OT18hlsHNodMsujH5/ox9ViS6TcBopdCN43aDh5mm
HLyPGjN28HRG4B6eSAM9IEKnBEmNLy78vRpukEIdedmh7vtTejaBmY04H+ULf+Ow
jkEkfuY585ICVwNCYUEBViRzA9gKSLBq0mmG+ri6BXdK8aBbGgyqZ39YdnA3MF9R
GHYv0KVmKNbSy69kvhs1vljgcmlxNETnb1SuBF/qVftiWEeRRSGF1vcwVMOsuS90
PwmlKaABOxoLSbaV8ChS0PB8amAOw11zfzE2ZJoKlJGmUFGl4pGlaGR1KHpC+pbC
mHhE5XfRbtNcELUyOzFqAxmAqtQaXTVHScUqbrRhmcwxixx2baO+BfaSo29Y3m+3
oBGEF6xymvasugM1718UO5IPh2iXYI25buLM9oHTLHIOp4lWh9the6WcjFc+Zu83
rLgeZDRW4ZDWZbGn3l2C9Ugce3JDoZBTT6Vfhf6paM4WnuUz8iruVXsUJFNzjUw+
5A2UgFozsnzovfvAdFiwchJa/Vr4Fdjm0mfe3Q4Jpg/0cJpLurZMHTiwr4xw7yMV
B4R24XfnorBOAcZDkdH4i6UElEtiHR2r+OU9dRbwCECqLqtZtGDPumXTey7zqXKc
nJMhun/CuoSB
-----END CERTIFICATE-----
